; ModuleID = '1128.cpp'
source_filename = "1128.cpp"
target datalayout = "e-m:e-p270:32:32-p271:32:32-p272:64:64-i64:64-f80:128-n8:16:32:64-S128"
target triple = "x86_64-pc-linux-gnu"

%"class.std::ios_base::Init" = type { i8 }
%"class.std::basic_ostream" = type { i32 (...)**, %"class.std::basic_ios" }
%"class.std::basic_ios" = type { %"class.std::ios_base", %"class.std::basic_ostream"*, i8, i8, %"class.std::basic_streambuf"*, %"class.std::ctype"*, %"class.std::num_put"*, %"class.std::num_get"* }
%"class.std::ios_base" = type { i32 (...)**, i64, i64, i32, i32, i32, %"struct.std::ios_base::_Callback_list"*, %"struct.std::ios_base::_Words", [8 x %"struct.std::ios_base::_Words"], i32, %"struct.std::ios_base::_Words"*, %"class.std::locale" }
%"struct.std::ios_base::_Callback_list" = type { %"struct.std::ios_base::_Callback_list"*, void (i32, %"class.std::ios_base"*, i32)*, i32, i32 }
%"struct.std::ios_base::_Words" = type { i8*, i64 }
%"class.std::locale" = type { %"class.std::locale::_Impl"* }
%"class.std::locale::_Impl" = type { i32, %"class.std::locale::facet"**, i64, %"class.std::locale::facet"**, i8** }
%"class.std::locale::facet" = type <{ i32 (...)**, i32, [4 x i8] }>
%"class.std::basic_streambuf" = type { i32 (...)**, i8*, i8*, i8*, i8*, i8*, i8*, %"class.std::locale" }
%"class.std::ctype" = type <{ %"class.std::locale::facet.base", [4 x i8], %struct.__locale_struct*, i8, [7 x i8], i32*, i32*, i16*, i8, [256 x i8], [256 x i8], i8, [6 x i8] }>
%"class.std::locale::facet.base" = type <{ i32 (...)**, i32 }>
%struct.__locale_struct = type { [13 x %struct.__locale_data*], i16*, i32*, i32*, [13 x i8*] }
%struct.__locale_data = type opaque
%"class.std::num_put" = type { %"class.std::locale::facet.base", [4 x i8] }
%"class.std::num_get" = type { %"class.std::locale::facet.base", [4 x i8] }

@_ZStL8__ioinit = internal global %"class.std::ios_base::Init" zeroinitializer, align 1
@__dso_handle = external hidden global i8
@_ZSt4cout = external dso_local global %"class.std::basic_ostream", align 8
@llvm.global_ctors = appending global [1 x { i32, void ()*, i8* }] [{ i32, void ()*, i8* } { i32 65535, void ()* @_GLOBAL__sub_I_1128.cpp, i8* null }]

; Function Attrs: noinline uwtable
define internal void @__cxx_global_var_init() #0 section ".text.startup" {
  call void @_ZNSt8ios_base4InitC1Ev(%"class.std::ios_base::Init"* @_ZStL8__ioinit)
  %1 = call i32 @__cxa_atexit(void (i8*)* bitcast (void (%"class.std::ios_base::Init"*)* @_ZNSt8ios_base4InitD1Ev to void (i8*)*), i8* getelementptr inbounds (%"class.std::ios_base::Init", %"class.std::ios_base::Init"* @_ZStL8__ioinit, i32 0, i32 0), i8* @__dso_handle) #3
  ret void
}

declare dso_local void @_ZNSt8ios_base4InitC1Ev(%"class.std::ios_base::Init"*) unnamed_addr #1

; Function Attrs: nounwind
declare dso_local void @_ZNSt8ios_base4InitD1Ev(%"class.std::ios_base::Init"*) unnamed_addr #2

; Function Attrs: nounwind
declare dso_local i32 @__cxa_atexit(void (i8*)*, i8*, i8*) #3

; Function Attrs: noinline norecurse uwtable
define dso_local i32 @main() #4 {
  %1 = alloca i32, align 4
  %2 = alloca [6 x i32], align 16
  %3 = alloca [6 x i32], align 16
  %4 = alloca i32, align 4
  %5 = alloca i32, align 4
  %6 = alloca i32, align 4
  %7 = alloca i32, align 4
  %8 = alloca i32, align 4
  store i32 0, i32* %1, align 4
  %9 = getelementptr inbounds [6 x i32], [6 x i32]* %2, i64 0, i64 5
  %10 = load i32, i32* %9, align 4
  %11 = icmp eq i32 %10, 1
  %12 = zext i1 %11 to i32
  %13 = getelementptr inbounds [6 x i32], [6 x i32]* %3, i64 0, i64 1
  store i32 %12, i32* %13, align 4
  %14 = getelementptr inbounds [6 x i32], [6 x i32]* %2, i64 0, i64 2
  %15 = load i32, i32* %14, align 8
  %16 = icmp eq i32 %15, 2
  %17 = zext i1 %16 to i32
  %18 = getelementptr inbounds [6 x i32], [6 x i32]* %3, i64 0, i64 2
  store i32 %17, i32* %18, align 8
  %19 = getelementptr inbounds [6 x i32], [6 x i32]* %2, i64 0, i64 1
  %20 = load i32, i32* %19, align 4
  %21 = icmp eq i32 %20, 5
  %22 = zext i1 %21 to i32
  %23 = getelementptr inbounds [6 x i32], [6 x i32]* %3, i64 0, i64 3
  store i32 %22, i32* %23, align 4
  %24 = getelementptr inbounds [6 x i32], [6 x i32]* %2, i64 0, i64 3
  %25 = load i32, i32* %24, align 4
  %26 = icmp ne i32 %25, 1
  %27 = zext i1 %26 to i32
  %28 = getelementptr inbounds [6 x i32], [6 x i32]* %3, i64 0, i64 4
  store i32 %27, i32* %28, align 16
  %29 = getelementptr inbounds [6 x i32], [6 x i32]* %2, i64 0, i64 4
  %30 = load i32, i32* %29, align 16
  %31 = icmp eq i32 %30, 1
  %32 = zext i1 %31 to i32
  %33 = getelementptr inbounds [6 x i32], [6 x i32]* %3, i64 0, i64 5
  store i32 %32, i32* %33, align 4
  %34 = getelementptr inbounds [6 x i32], [6 x i32]* %2, i64 0, i64 1
  store i32 1, i32* %34, align 4
  br label %35

35:                                               ; preds = %189, %0
  %36 = getelementptr inbounds [6 x i32], [6 x i32]* %2, i64 0, i64 1
  %37 = load i32, i32* %36, align 4
  %38 = icmp sle i32 %37, 5
  br i1 %38, label %39, label %193

39:                                               ; preds = %35
  %40 = getelementptr inbounds [6 x i32], [6 x i32]* %2, i64 0, i64 2
  store i32 1, i32* %40, align 8
  br label %41

41:                                               ; preds = %184, %39
  %42 = getelementptr inbounds [6 x i32], [6 x i32]* %2, i64 0, i64 2
  %43 = load i32, i32* %42, align 8
  %44 = icmp sle i32 %43, 5
  br i1 %44, label %45, label %188

45:                                               ; preds = %41
  %46 = getelementptr inbounds [6 x i32], [6 x i32]* %2, i64 0, i64 3
  store i32 1, i32* %46, align 4
  br label %47

47:                                               ; preds = %179, %45
  %48 = getelementptr inbounds [6 x i32], [6 x i32]* %2, i64 0, i64 3
  %49 = load i32, i32* %48, align 4
  %50 = icmp sle i32 %49, 5
  br i1 %50, label %51, label %183

51:                                               ; preds = %47
  %52 = getelementptr inbounds [6 x i32], [6 x i32]* %2, i64 0, i64 4
  store i32 1, i32* %52, align 16
  br label %53

53:                                               ; preds = %174, %51
  %54 = getelementptr inbounds [6 x i32], [6 x i32]* %2, i64 0, i64 4
  %55 = load i32, i32* %54, align 16
  %56 = icmp sle i32 %55, 5
  br i1 %56, label %57, label %178

57:                                               ; preds = %53
  %58 = getelementptr inbounds [6 x i32], [6 x i32]* %2, i64 0, i64 5
  store i32 1, i32* %58, align 4
  br label %59

59:                                               ; preds = %169, %57
  %60 = getelementptr inbounds [6 x i32], [6 x i32]* %2, i64 0, i64 5
  %61 = load i32, i32* %60, align 4
  %62 = icmp sle i32 %61, 5
  br i1 %62, label %63, label %173

63:                                               ; preds = %59
  store i32 1, i32* %4, align 4
  br label %64

64:                                               ; preds = %165, %63
  %65 = load i32, i32* %4, align 4
  %66 = icmp slt i32 %65, 6
  br i1 %66, label %67, label %168

67:                                               ; preds = %64
  %68 = load i32, i32* %4, align 4
  %69 = sext i32 %68 to i64
  %70 = getelementptr inbounds [6 x i32], [6 x i32]* %2, i64 0, i64 %69
  %71 = load i32, i32* %70, align 4
  %72 = icmp eq i32 %71, 1
  br i1 %72, label %73, label %164

73:                                               ; preds = %67
  %74 = load i32, i32* %4, align 4
  %75 = sext i32 %74 to i64
  %76 = getelementptr inbounds [6 x i32], [6 x i32]* %3, i64 0, i64 %75
  %77 = load i32, i32* %76, align 4
  %78 = icmp eq i32 %77, 1
  br i1 %78, label %79, label %164

79:                                               ; preds = %73
  store i32 1, i32* %5, align 4
  br label %80

80:                                               ; preds = %160, %79
  %81 = load i32, i32* %5, align 4
  %82 = icmp slt i32 %81, 6
  br i1 %82, label %83, label %163

83:                                               ; preds = %80
  %84 = load i32, i32* %5, align 4
  %85 = sext i32 %84 to i64
  %86 = getelementptr inbounds [6 x i32], [6 x i32]* %2, i64 0, i64 %85
  %87 = load i32, i32* %86, align 4
  %88 = icmp eq i32 %87, 2
  br i1 %88, label %89, label %159

89:                                               ; preds = %83
  %90 = load i32, i32* %5, align 4
  %91 = sext i32 %90 to i64
  %92 = getelementptr inbounds [6 x i32], [6 x i32]* %3, i64 0, i64 %91
  %93 = load i32, i32* %92, align 4
  %94 = icmp eq i32 %93, 1
  br i1 %94, label %95, label %159

95:                                               ; preds = %89
  store i32 1, i32* %6, align 4
  br label %96

96:                                               ; preds = %155, %95
  %97 = load i32, i32* %6, align 4
  %98 = icmp slt i32 %97, 6
  br i1 %98, label %99, label %158

99:                                               ; preds = %96
  %100 = load i32, i32* %6, align 4
  %101 = sext i32 %100 to i64
  %102 = getelementptr inbounds [6 x i32], [6 x i32]* %2, i64 0, i64 %101
  %103 = load i32, i32* %102, align 4
  %104 = icmp eq i32 %103, 3
  br i1 %104, label %105, label %154

105:                                              ; preds = %99
  %106 = load i32, i32* %6, align 4
  %107 = sext i32 %106 to i64
  %108 = getelementptr inbounds [6 x i32], [6 x i32]* %3, i64 0, i64 %107
  %109 = load i32, i32* %108, align 4
  %110 = icmp eq i32 %109, 0
  br i1 %110, label %111, label %154

111:                                              ; preds = %105
  store i32 1, i32* %7, align 4
  br label %112

112:                                              ; preds = %150, %111
  %113 = load i32, i32* %7, align 4
  %114 = icmp slt i32 %113, 6
  br i1 %114, label %115, label %153

115:                                              ; preds = %112
  %116 = load i32, i32* %7, align 4
  %117 = sext i32 %116 to i64
  %118 = getelementptr inbounds [6 x i32], [6 x i32]* %2, i64 0, i64 %117
  %119 = load i32, i32* %118, align 4
  %120 = icmp eq i32 %119, 4
  br i1 %120, label %121, label %149

121:                                              ; preds = %115
  %122 = load i32, i32* %7, align 4
  %123 = sext i32 %122 to i64
  %124 = getelementptr inbounds [6 x i32], [6 x i32]* %3, i64 0, i64 %123
  %125 = load i32, i32* %124, align 4
  %126 = icmp eq i32 %125, 0
  br i1 %126, label %127, label %149

127:                                              ; preds = %121
  store i32 1, i32* %8, align 4
  br label %128

128:                                              ; preds = %145, %127
  %129 = load i32, i32* %8, align 4
  %130 = icmp slt i32 %129, 6
  br i1 %130, label %131, label %148

131:                                              ; preds = %128
  %132 = load i32, i32* %8, align 4
  %133 = sext i32 %132 to i64
  %134 = getelementptr inbounds [6 x i32], [6 x i32]* %2, i64 0, i64 %133
  %135 = load i32, i32* %134, align 4
  %136 = icmp eq i32 %135, 5
  br i1 %136, label %137, label %144

137:                                              ; preds = %131
  %138 = load i32, i32* %8, align 4
  %139 = sext i32 %138 to i64
  %140 = getelementptr inbounds [6 x i32], [6 x i32]* %3, i64 0, i64 %139
  %141 = load i32, i32* %140, align 4
  %142 = icmp eq i32 %141, 0
  br i1 %142, label %143, label %144

143:                                              ; preds = %137
  br label %148

144:                                              ; preds = %137, %131
  br label %145

145:                                              ; preds = %144
  %146 = load i32, i32* %8, align 4
  %147 = add nsw i32 %146, 1
  store i32 %147, i32* %8, align 4
  br label %128

148:                                              ; preds = %143, %128
  br label %149

149:                                              ; preds = %148, %121, %115
  br label %150

150:                                              ; preds = %149
  %151 = load i32, i32* %7, align 4
  %152 = add nsw i32 %151, 1
  store i32 %152, i32* %7, align 4
  br label %112

153:                                              ; preds = %112
  br label %154

154:                                              ; preds = %153, %105, %99
  br label %155

155:                                              ; preds = %154
  %156 = load i32, i32* %6, align 4
  %157 = add nsw i32 %156, 1
  store i32 %157, i32* %6, align 4
  br label %96

158:                                              ; preds = %96
  br label %159

159:                                              ; preds = %158, %89, %83
  br label %160

160:                                              ; preds = %159
  %161 = load i32, i32* %5, align 4
  %162 = add nsw i32 %161, 1
  store i32 %162, i32* %5, align 4
  br label %80

163:                                              ; preds = %80
  br label %164

164:                                              ; preds = %163, %73, %67
  br label %165

165:                                              ; preds = %164
  %166 = load i32, i32* %4, align 4
  %167 = add nsw i32 %166, 1
  store i32 %167, i32* %4, align 4
  br label %64

168:                                              ; preds = %64
  br label %169

169:                                              ; preds = %168
  %170 = getelementptr inbounds [6 x i32], [6 x i32]* %2, i64 0, i64 5
  %171 = load i32, i32* %170, align 4
  %172 = add nsw i32 %171, 1
  store i32 %172, i32* %170, align 4
  br label %59

173:                                              ; preds = %59
  br label %174

174:                                              ; preds = %173
  %175 = getelementptr inbounds [6 x i32], [6 x i32]* %2, i64 0, i64 4
  %176 = load i32, i32* %175, align 16
  %177 = add nsw i32 %176, 1
  store i32 %177, i32* %175, align 16
  br label %53

178:                                              ; preds = %53
  br label %179

179:                                              ; preds = %178
  %180 = getelementptr inbounds [6 x i32], [6 x i32]* %2, i64 0, i64 3
  %181 = load i32, i32* %180, align 4
  %182 = add nsw i32 %181, 1
  store i32 %182, i32* %180, align 4
  br label %47

183:                                              ; preds = %47
  br label %184

184:                                              ; preds = %183
  %185 = getelementptr inbounds [6 x i32], [6 x i32]* %2, i64 0, i64 2
  %186 = load i32, i32* %185, align 8
  %187 = add nsw i32 %186, 1
  store i32 %187, i32* %185, align 8
  br label %41

188:                                              ; preds = %41
  br label %189

189:                                              ; preds = %188
  %190 = getelementptr inbounds [6 x i32], [6 x i32]* %2, i64 0, i64 1
  %191 = load i32, i32* %190, align 4
  %192 = add nsw i32 %191, 1
  store i32 %192, i32* %190, align 4
  br label %35

193:                                              ; preds = %35
  %194 = call dereferenceable(272) %"class.std::basic_ostream"* @_ZNSolsEi(%"class.std::basic_ostream"* @_ZSt4cout, i32 5)
  %195 = call dereferenceable(272) %"class.std::basic_ostream"* @_ZStlsISt11char_traitsIcEERSt13basic_ostreamIcT_ES5_c(%"class.std::basic_ostream"* dereferenceable(272) %194, i8 signext 32)
  %196 = call dereferenceable(272) %"class.std::basic_ostream"* @_ZNSolsEi(%"class.std::basic_ostream"* %195, i32 2)
  %197 = call dereferenceable(272) %"class.std::basic_ostream"* @_ZStlsISt11char_traitsIcEERSt13basic_ostreamIcT_ES5_c(%"class.std::basic_ostream"* dereferenceable(272) %196, i8 signext 32)
  %198 = call dereferenceable(272) %"class.std::basic_ostream"* @_ZNSolsEi(%"class.std::basic_ostream"* %197, i32 1)
  %199 = call dereferenceable(272) %"class.std::basic_ostream"* @_ZStlsISt11char_traitsIcEERSt13basic_ostreamIcT_ES5_c(%"class.std::basic_ostream"* dereferenceable(272) %198, i8 signext 32)
  %200 = call dereferenceable(272) %"class.std::basic_ostream"* @_ZNSolsEi(%"class.std::basic_ostream"* %199, i32 3)
  %201 = call dereferenceable(272) %"class.std::basic_ostream"* @_ZStlsISt11char_traitsIcEERSt13basic_ostreamIcT_ES5_c(%"class.std::basic_ostream"* dereferenceable(272) %200, i8 signext 32)
  %202 = call dereferenceable(272) %"class.std::basic_ostream"* @_ZNSolsEi(%"class.std::basic_ostream"* %201, i32 4)
  ret i32 0
}

declare dso_local dereferenceable(272) %"class.std::basic_ostream"* @_ZStlsISt11char_traitsIcEERSt13basic_ostreamIcT_ES5_c(%"class.std::basic_ostream"* dereferenceable(272), i8 signext) #1

declare dso_local dereferenceable(272) %"class.std::basic_ostream"* @_ZNSolsEi(%"class.std::basic_ostream"*, i32) #1

; Function Attrs: noinline uwtable
define internal void @_GLOBAL__sub_I_1128.cpp() #0 section ".text.startup" {
  call void @__cxx_global_var_init()
  ret void
}


!llvm.module.flags = !{!0}
!llvm.ident = !{!1}

!0 = !{i32 1, !"wchar_size", i32 4}
!1 = !{!"clang version 10.0.0-4ubuntu1 "}
